; Function Attrs: nounwind sspstrong uwtable
define internal fastcc void @dump_append_g(ptr noundef %0, double noundef %1) unnamed_addr #0 {
  %3 = getelementptr inbounds nuw i8, ptr %0, i64 96
  %4 = load i64, ptr %3, align 8, !tbaa !16
  %5 = sub i64 4096, %4
  %6 = getelementptr inbounds nuw i8, ptr %0, i64 104
  %7 = getelementptr inbounds nuw i8, ptr %6, i64 %4
  %8 = tail call i32 (ptr, i64, ptr, ...) @ruby_snprintf(ptr noundef nonnull %7, i64 noundef %5, ptr noundef nonnull @.str.101, double noundef %1) #12
  %9 = sext i32 %8 to i64
  %.not = icmp ugt i64 %5, %9
  br i1 %.not, label %41, label %10

10:                                               ; preds = %2
  %11 = load i64, ptr %3, align 8, !tbaa !16
  %12 = add i64 %11, %9
  %13 = icmp ugt i64 %12, 4095
  br i1 %13, label %14, label %buffer_ensure_capa.exit

14:                                               ; preds = %10
  %.not.i.i = icmp eq i64 %11, 0
  br i1 %.not.i.i, label %dump_flush.exit.i, label %15

15:                                               ; preds = %14
  %16 = getelementptr inbounds nuw i8, ptr %0, i64 24
  %17 = load ptr, ptr %16, align 8, !tbaa !23
  %.not24.i.i = icmp eq ptr %17, null
  br i1 %.not24.i.i, label %27, label %18

18:                                               ; preds = %15
  %19 = tail call i64 @fwrite(ptr noundef nonnull %6, i64 noundef 1, i64 noundef %11, ptr noundef nonnull %17)
  %20 = load i64, ptr %3, align 8, !tbaa !16
  %21 = icmp ult i64 %19, %20
  br i1 %21, label %22, label %.sink.split.i.i

22:                                               ; preds = %18
  %23 = getelementptr inbounds nuw i8, ptr %6, i64 %19
  %24 = sub nuw i64 %20, %19
  tail call void @llvm.memmove.p0.p0.i64(ptr noundef nonnull align 1 %6, ptr noundef nonnull align 1 %23, i64 noundef %24, i1 noundef false) #12
  %25 = load i64, ptr %3, align 8, !tbaa !16
  %26 = sub i64 %25, %19
  br label %.sink.split.i.i

27:                                               ; preds = %15
  %28 = getelementptr inbounds nuw i8, ptr %0, i64 16
  %29 = load i64, ptr %28, align 8, !tbaa !24
  %.not25.i.i = icmp eq i64 %29, 0
  br i1 %.not25.i.i, label %.sink.split.i.i, label %30

30:                                               ; preds = %27
  %31 = tail call i64 @rb_str_cat(i64 noundef %29, ptr noundef nonnull %6, i64 noundef %11) #12
  br label %.sink.split.i.i

.sink.split.i.i:                                  ; preds = %30, %27, %22, %18
  %.sink.i.i = phi i64 [ %26, %22 ], [ 0, %18 ], [ 0, %27 ], [ 0, %30 ]
  store i64 %.sink.i.i, ptr %3, align 8, !tbaa !16
  br label %dump_flush.exit.i

dump_flush.exit.i:                                ; preds = %.sink.split.i.i, %14
  %32 = phi i64 [ 0, %14 ], [ %.sink.i.i, %.sink.split.i.i ]
  %33 = add i64 %32, %9
  %34 = icmp ugt i64 %33, 4095
  br i1 %34, label %35, label %buffer_ensure_capa.exit

35:                                               ; preds = %dump_flush.exit.i
  %36 = load i64, ptr @rb_eIOError, align 8, !tbaa !82
  tail call void (i64, ptr, ...) @rb_raise(i64 noundef %36, ptr noundef nonnull @.str.55) #15
  unreachable

buffer_ensure_capa.exit:                          ; preds = %10, %dump_flush.exit.i
  %37 = phi i64 [ %11, %10 ], [ %32, %dump_flush.exit.i ]
  %38 = sub i64 4096, %37
  %39 = getelementptr inbounds nuw i8, ptr %6, i64 %37
  %40 = tail call i32 (ptr, i64, ptr, ...) @ruby_snprintf(ptr noundef nonnull %39, i64 noundef %38, ptr noundef nonnull @.str.101, double noundef %1) #12
  br label %41

41:                                               ; preds = %buffer_ensure_capa.exit, %2
  %42 = load i64, ptr %3, align 8, !tbaa !16
  %43 = add i64 %42, %9
  store i64 %43, ptr %3, align 8, !tbaa !16
  ret void
}